; Function Attrs: nounwind uwtable
define hidden void @SDL_FlushEvents_REAL(i32 noundef %0, i32 noundef %1) local_unnamed_addr #0 {
  %3 = load ptr, ptr @SDL_EventQ, align 8
  tail call void @SDL_LockMutex_REAL(ptr noundef %3) #8
  %4 = load i8, ptr getelementptr inbounds nuw (i8, ptr @SDL_EventQ, i64 8), align 8, !range !6, !noundef !7
  %5 = trunc nuw i8 %4 to i1
  %6 = load ptr, ptr getelementptr inbounds nuw (i8, ptr @SDL_EventQ, i64 24), align 8
  %.not11 = icmp ne ptr %6, null
  %or.cond14.not = select i1 %5, i1 %.not11, i1 false
  br i1 %or.cond14.not, label %.lr.ph, label %._crit_edge

.lr.ph:                                           ; preds = %2, %11
  %.012 = phi ptr [ %8, %11 ], [ %6, %2 ]
  %7 = getelementptr inbounds nuw i8, ptr %.012, i64 144
  %8 = load ptr, ptr %7, align 8
  %9 = load i32, ptr %.012, align 8
  %.not9 = icmp ugt i32 %0, %9
  %.not10 = icmp ugt i32 %9, %1
  %or.cond = or i1 %.not9, %.not10
  br i1 %or.cond, label %11, label %10

10:                                               ; preds = %.lr.ph
  tail call fastcc void @SDL_CutEvent(ptr noundef %.012)
  br label %11

11:                                               ; preds = %.lr.ph, %10
  %.not = icmp eq ptr %8, null
  br i1 %.not, label %._crit_edge, label %.lr.ph, !llvm.loop !15

._crit_edge:                                      ; preds = %11, %2
  %12 = load ptr, ptr @SDL_EventQ, align 8
  tail call void @SDL_UnlockMutex_REAL(ptr noundef %12) #8
  ret void
}